target datalayout = "e-m:e-p270:32:32-p271:32:32-p272:64:64-i64:64-i128:128-f80:128-n8:16:32:64-S128"
target triple = "x86_64-pc-linux-gnu"

%"class.std::__cxx11::basic_string" = type { %"struct.std::__cxx11::basic_string<char>::_Alloc_hider", i64, %union.anon }
%"struct.std::__cxx11::basic_string<char>::_Alloc_hider" = type { ptr }
%union.anon = type { i64, [8 x i8] }
%"class.cmsys::Status" = type { i32, %union.anon.3 }
%union.anon.3 = type { i32 }
%struct.stat = type { i64, i64, i64, i32, i32, i32, i32, i64, i64, i64, i64, %struct.timespec, %struct.timespec, %struct.timespec, [3 x i64] }
%struct.timespec = type { i64, i64 }

; Function Attrs: mustprogress nounwind uwtable
define available_externally noundef i64 @_ZNKSt7__cxx1112basic_stringIcSt11char_traitsIcESaIcEE4sizeEv(ptr noundef nonnull align 8 dereferenceable(32) %0) #4 align 2 {
  %2 = alloca ptr, align 8
  store ptr %0, ptr %2, align 8, !tbaa !28
  %3 = load ptr, ptr %2, align 8
  %4 = getelementptr inbounds nuw %"class.std::__cxx11::basic_string", ptr %3, i32 0, i32 1
  %5 = load i64, ptr %4, align 8, !tbaa !51
  ret i64 %5
}

; Function Attrs: mustprogress nounwind uwtable
define linkonce_odr dso_local void @_ZN5cmsys6StatusC2Ev(ptr noundef nonnull align 4 dereferenceable(8) %0) unnamed_addr #4 comdat align 2 {
  %2 = alloca ptr, align 8
  store ptr %0, ptr %2, align 8, !tbaa !132
  %3 = load ptr, ptr %2, align 8
  %4 = getelementptr inbounds nuw %"class.cmsys::Status", ptr %3, i32 0, i32 0
  store i32 0, ptr %4, align 4, !tbaa !134
  ret void
}

; Function Attrs: mustprogress nounwind uwtable
define available_externally noundef ptr @_ZNKSt7__cxx1112basic_stringIcSt11char_traitsIcESaIcEE7_M_dataEv(ptr noundef nonnull align 8 dereferenceable(32) %0) #4 align 2 {
  %2 = alloca ptr, align 8
  store ptr %0, ptr %2, align 8, !tbaa !28
  %3 = load ptr, ptr %2, align 8
  %4 = getelementptr inbounds nuw %"class.std::__cxx11::basic_string", ptr %3, i32 0, i32 0
  %5 = getelementptr inbounds nuw %"struct.std::__cxx11::basic_string<char>::_Alloc_hider", ptr %4, i32 0, i32 0
  %6 = load ptr, ptr %5, align 8, !tbaa !191
  ret ptr %6
}

; Function Attrs: mustprogress nounwind uwtable
define linkonce_odr dso_local void @_ZN5cmsys6StatusC2ENS0_4KindE(ptr noundef nonnull align 4 dereferenceable(8) %0, i32 noundef %1) unnamed_addr #4 comdat align 2 {
  %3 = alloca ptr, align 8
  %4 = alloca i32, align 4
  store ptr %0, ptr %3, align 8, !tbaa !132
  store i32 %1, ptr %4, align 4, !tbaa !111
  %5 = load ptr, ptr %3, align 8
  %6 = getelementptr inbounds nuw %"class.cmsys::Status", ptr %5, i32 0, i32 0
  %7 = load i32, ptr %4, align 4, !tbaa !111
  store i32 %7, ptr %6, align 4, !tbaa !134
  ret void
}

; Function Attrs: mustprogress nounwind uwtable
define available_externally noundef zeroext i1 @_ZNKSt7__cxx1112basic_stringIcSt11char_traitsIcESaIcEE5emptyEv(ptr noundef nonnull align 8 dereferenceable(32) %0) #4 align 2 {
  %2 = alloca ptr, align 8
  store ptr %0, ptr %2, align 8, !tbaa !28
  %3 = load ptr, ptr %2, align 8
  %4 = call noundef i64 @_ZNKSt7__cxx1112basic_stringIcSt11char_traitsIcESaIcEE4sizeEv(ptr noundef nonnull align 8 dereferenceable(32) %3) #1
  %5 = icmp eq i64 %4, 0
  ret i1 %5
}

; Function Attrs: mustprogress nounwind uwtable
define linkonce_odr dso_local i64 @_ZN5cmsys6Status7SuccessEv() #4 comdat align 2 {
  %1 = alloca %"class.cmsys::Status", align 4
  call void @llvm.memset.p0.i64(ptr align 4 %1, i8 0, i64 8, i1 false)
  call void @_ZN5cmsys6StatusC2Ev(ptr noundef nonnull align 4 dereferenceable(8) %1) #1
  %2 = load i64, ptr %1, align 4
  ret i64 %2
}

; Function Attrs: mustprogress nounwind uwtable
define available_externally noundef ptr @_ZNKSt7__cxx1112basic_stringIcSt11char_traitsIcESaIcEE5c_strEv(ptr noundef nonnull align 8 dereferenceable(32) %0) #4 align 2 {
  %2 = alloca ptr, align 8
  store ptr %0, ptr %2, align 8, !tbaa !28
  %3 = load ptr, ptr %2, align 8
  %4 = call noundef ptr @_ZNKSt7__cxx1112basic_stringIcSt11char_traitsIcESaIcEE7_M_dataEv(ptr noundef nonnull align 8 dereferenceable(32) %3)
  ret ptr %4
}

; Function Attrs: mustprogress uwtable
define linkonce_odr dso_local i64 @_ZN5cmsys6Status5POSIXEi(i32 noundef %0) #7 comdat align 2 {
  %2 = alloca %"class.cmsys::Status", align 4
  %3 = alloca i32, align 4
  store i32 %0, ptr %3, align 4, !tbaa !41
  call void @_ZN5cmsys6StatusC2ENS0_4KindE(ptr noundef nonnull align 4 dereferenceable(8) %2, i32 noundef 1)
  %4 = load i32, ptr %3, align 4, !tbaa !41
  %5 = getelementptr inbounds nuw %"class.cmsys::Status", ptr %2, i32 0, i32 1
  store i32 %4, ptr %5, align 4, !tbaa !16
  %6 = load i64, ptr %2, align 4
  ret i64 %6
}

; Function Attrs: mustprogress nounwind uwtable
define dso_local noundef zeroext i1 @_ZN5cmsys11SystemTools10PathExistsERKNSt7__cxx1112basic_stringIcSt11char_traitsIcESaIcEEE(ptr noundef nonnull align 8 dereferenceable(32) %0) #4 align 2 {
  %2 = alloca i1, align 1
  %3 = alloca ptr, align 8
  %4 = alloca %struct.stat, align 8
  store ptr %0, ptr %3, align 8, !tbaa !28
  %5 = load ptr, ptr %3, align 8, !tbaa !28
  %6 = call noundef zeroext i1 @_ZNKSt7__cxx1112basic_stringIcSt11char_traitsIcESaIcEE5emptyEv(ptr noundef nonnull align 8 dereferenceable(32) %5) #1
  br i1 %6, label %7, label %8

7:                                                ; preds = %1
  store i1 false, ptr %2, align 1
  br label %13

8:                                                ; preds = %1
  call void @llvm.lifetime.start.p0(i64 144, ptr %4) #1
  %9 = load ptr, ptr %3, align 8, !tbaa !28
  %10 = call noundef ptr @_ZNKSt7__cxx1112basic_stringIcSt11char_traitsIcESaIcEE5c_strEv(ptr noundef nonnull align 8 dereferenceable(32) %9) #1
  %11 = call i32 @lstat(ptr noundef %10, ptr noundef %4) #1
  %12 = icmp eq i32 %11, 0
  store i1 %12, ptr %2, align 1
  call void @llvm.lifetime.end.p0(i64 144, ptr %4) #1
  br label %13

13:                                               ; preds = %8, %7
  %14 = load i1, ptr %2, align 1
  ret i1 %14
}

; Function Attrs: mustprogress uwtable
define dso_local i64 @_ZN5cmsys11SystemTools14SetPermissionsERKNSt7__cxx1112basic_stringIcSt11char_traitsIcESaIcEEEjb(ptr noundef nonnull align 8 dereferenceable(32) %0, i32 noundef %1, i1 noundef zeroext %2) #7 align 2 {
  %4 = alloca %"class.cmsys::Status", align 4
  %5 = alloca ptr, align 8
  %6 = alloca i32, align 4
  %7 = alloca i8, align 1
  %8 = alloca i32, align 4
  store ptr %0, ptr %5, align 8, !tbaa !28
  store i32 %1, ptr %6, align 4, !tbaa !41
  %9 = zext i1 %2 to i8
  store i8 %9, ptr %7, align 1, !tbaa !17
  %10 = load ptr, ptr %5, align 8, !tbaa !28
  %11 = call noundef zeroext i1 @_ZN5cmsys11SystemTools10PathExistsERKNSt7__cxx1112basic_stringIcSt11char_traitsIcESaIcEEE(ptr noundef nonnull align 8 dereferenceable(32) %10)
  br i1 %11, label %14, label %12

12:                                               ; preds = %3
  %13 = call i64 @_ZN5cmsys6Status5POSIXEi(i32 noundef 2)
  store i64 %13, ptr %4, align 4
  br label %35

14:                                               ; preds = %3
  %15 = load i8, ptr %7, align 1, !tbaa !17, !range !19, !noundef !20
  %16 = trunc i8 %15 to i1
  br i1 %16, label %17, label %25

17:                                               ; preds = %14
  call void @llvm.lifetime.start.p0(i64 4, ptr %8) #1
  %18 = call i32 @umask(i32 noundef 0) #1
  store i32 %18, ptr %8, align 4, !tbaa !41
  %19 = load i32, ptr %8, align 4, !tbaa !41
  %20 = call i32 @umask(i32 noundef %19) #1
  %21 = load i32, ptr %8, align 4, !tbaa !41
  %22 = xor i32 %21, -1
  %23 = load i32, ptr %6, align 4, !tbaa !41
  %24 = and i32 %23, %22
  store i32 %24, ptr %6, align 4, !tbaa !41
  call void @llvm.lifetime.end.p0(i64 4, ptr %8) #1
  br label %25

25:                                               ; preds = %17, %14
  %26 = load ptr, ptr %5, align 8, !tbaa !28
  %27 = call noundef ptr @_ZNKSt7__cxx1112basic_stringIcSt11char_traitsIcESaIcEE5c_strEv(ptr noundef nonnull align 8 dereferenceable(32) %26) #1
  %28 = load i32, ptr %6, align 4, !tbaa !41
  %29 = call i32 @chmod(ptr noundef %27, i32 noundef %28) #1
  %30 = icmp slt i32 %29, 0
  br i1 %30, label %31, label %33

31:                                               ; preds = %25
  %32 = call i64 @_ZN5cmsys6Status11POSIX_errnoEv()
  store i64 %32, ptr %4, align 4
  br label %35

33:                                               ; preds = %25
  %34 = call i64 @_ZN5cmsys6Status7SuccessEv()
  store i64 %34, ptr %4, align 4
  br label %35

35:                                               ; preds = %33, %31, %12
  %36 = load i64, ptr %4, align 4
  ret i64 %36
}