; Function Attrs: mustprogress uwtable
define dso_local i64 @_ZN5cmsys11SystemTools14SetPermissionsERKNSt7__cxx1112basic_stringIcSt11char_traitsIcESaIcEEEjb(ptr noundef nonnull readonly align 8 captures(none) dereferenceable(32) %0, i32 noundef %1, i1 noundef zeroext %2) local_unnamed_addr #6 align 2 {
  %4 = alloca %struct.stat, align 8
  %5 = getelementptr inbounds nuw i8, ptr %0, i64 8
  %6 = load i64, ptr %5, align 8, !tbaa !18
  %7 = icmp eq i64 %6, 0
  br i1 %7, label %_ZN5cmsys11SystemTools10PathExistsERKNSt7__cxx1112basic_stringIcSt11char_traitsIcESaIcEEE.exit.thread, label %_ZN5cmsys11SystemTools10PathExistsERKNSt7__cxx1112basic_stringIcSt11char_traitsIcESaIcEEE.exit

_ZN5cmsys11SystemTools10PathExistsERKNSt7__cxx1112basic_stringIcSt11char_traitsIcESaIcEEE.exit: ; preds = %3
  call void @llvm.lifetime.start.p0(i64 144, ptr nonnull %4) #39
  %8 = load ptr, ptr %0, align 8, !tbaa !21
  %9 = call i32 @lstat(ptr noundef %8, ptr noundef nonnull %4) #39
  %10 = icmp eq i32 %9, 0
  call void @llvm.lifetime.end.p0(i64 144, ptr nonnull %4) #39
  br i1 %10, label %11, label %_ZN5cmsys11SystemTools10PathExistsERKNSt7__cxx1112basic_stringIcSt11char_traitsIcESaIcEEE.exit.thread

11:                                               ; preds = %_ZN5cmsys11SystemTools10PathExistsERKNSt7__cxx1112basic_stringIcSt11char_traitsIcESaIcEEE.exit
  br i1 %2, label %12, label %17

12:                                               ; preds = %11
  %13 = tail call i32 @umask(i32 noundef 0) #39
  %14 = tail call i32 @umask(i32 noundef %13) #39
  %15 = xor i32 %13, -1
  %16 = and i32 %1, %15
  br label %17

17:                                               ; preds = %12, %11
  %.0 = phi i32 [ %16, %12 ], [ %1, %11 ]
  %18 = load ptr, ptr %0, align 8, !tbaa !21
  %19 = tail call i32 @chmod(ptr noundef %18, i32 noundef %.0) #39
  %20 = icmp slt i32 %19, 0
  br i1 %20, label %21, label %_ZN5cmsys11SystemTools10PathExistsERKNSt7__cxx1112basic_stringIcSt11char_traitsIcESaIcEEE.exit.thread

21:                                               ; preds = %17
  %22 = tail call i64 @_ZN5cmsys6Status11POSIX_errnoEv()
  br label %_ZN5cmsys11SystemTools10PathExistsERKNSt7__cxx1112basic_stringIcSt11char_traitsIcESaIcEEE.exit.thread

_ZN5cmsys11SystemTools10PathExistsERKNSt7__cxx1112basic_stringIcSt11char_traitsIcESaIcEEE.exit.thread: ; preds = %3, %17, %_ZN5cmsys11SystemTools10PathExistsERKNSt7__cxx1112basic_stringIcSt11char_traitsIcESaIcEEE.exit, %21
  %.sroa.0.0 = phi i64 [ %22, %21 ], [ 8589934593, %_ZN5cmsys11SystemTools10PathExistsERKNSt7__cxx1112basic_stringIcSt11char_traitsIcESaIcEEE.exit ], [ 0, %17 ], [ 8589934593, %3 ]
  ret i64 %.sroa.0.0
}